; ModuleID = '36/522.c'
source_filename = "36/522.c"
target datalayout = "e-m:e-p270:32:32-p271:32:32-p272:64:64-i64:64-f80:128-n8:16:32:64-S128"
target triple = "x86_64-pc-linux-gnu"

@.str = private unnamed_addr constant [3 x i8] c"%s\00", align 1
@.str.1 = private unnamed_addr constant [3 x i8] c"NO\00", align 1
@.str.2 = private unnamed_addr constant [4 x i8] c"YES\00", align 1

; Function Attrs: noinline nounwind uwtable
define dso_local void @main() #0 {
  %1 = alloca i32, align 4
  %2 = alloca i32, align 4
  %3 = alloca i32, align 4
  %4 = alloca i32, align 4
  %5 = alloca i32, align 4
  %6 = alloca i32, align 4
  %7 = alloca [100 x i8], align 16
  %8 = alloca [100 x i8], align 16
  %9 = call i32 (i8*, ...) @__isoc99_scanf(i8* getelementptr inbounds ([3 x i8], [3 x i8]* @.str, i64 0, i64 0), [100 x i8]* %7)
  %10 = call i32 (i8*, ...) @__isoc99_scanf(i8* getelementptr inbounds ([3 x i8], [3 x i8]* @.str, i64 0, i64 0), [100 x i8]* %8)
  %11 = getelementptr inbounds [100 x i8], [100 x i8]* %7, i64 0, i64 0
  %12 = call i64 @strlen(i8* %11) #3
  %13 = trunc i64 %12 to i32
  store i32 %13, i32* %4, align 4
  %14 = getelementptr inbounds [100 x i8], [100 x i8]* %8, i64 0, i64 0
  %15 = call i64 @strlen(i8* %14) #3
  %16 = trunc i64 %15 to i32
  store i32 %16, i32* %5, align 4
  %17 = load i32, i32* %4, align 4
  %18 = load i32, i32* %5, align 4
  %19 = icmp eq i32 %17, %18
  br i1 %19, label %20, label %154

20:                                               ; preds = %0
  store i32 1, i32* %3, align 4
  br label %21

21:                                               ; preds = %68, %20
  %22 = load i32, i32* %3, align 4
  %23 = icmp sle i32 %22, 50
  br i1 %23, label %24, label %71

24:                                               ; preds = %21
  store i32 0, i32* %2, align 4
  br label %25

25:                                               ; preds = %64, %24
  %26 = load i32, i32* %2, align 4
  %27 = load i32, i32* %4, align 4
  %28 = sub nsw i32 %27, 2
  %29 = icmp sle i32 %26, %28
  br i1 %29, label %30, label %67

30:                                               ; preds = %25
  %31 = load i32, i32* %2, align 4
  %32 = sext i32 %31 to i64
  %33 = getelementptr inbounds [100 x i8], [100 x i8]* %7, i64 0, i64 %32
  %34 = load i8, i8* %33, align 1
  %35 = sext i8 %34 to i32
  %36 = load i32, i32* %2, align 4
  %37 = add nsw i32 %36, 1
  %38 = sext i32 %37 to i64
  %39 = getelementptr inbounds [100 x i8], [100 x i8]* %7, i64 0, i64 %38
  %40 = load i8, i8* %39, align 1
  %41 = sext i8 %40 to i32
  %42 = icmp slt i32 %35, %41
  br i1 %42, label %43, label %63

43:                                               ; preds = %30
  %44 = load i32, i32* %2, align 4
  %45 = sext i32 %44 to i64
  %46 = getelementptr inbounds [100 x i8], [100 x i8]* %7, i64 0, i64 %45
  %47 = load i8, i8* %46, align 1
  %48 = sext i8 %47 to i32
  store i32 %48, i32* %1, align 4
  %49 = load i32, i32* %2, align 4
  %50 = add nsw i32 %49, 1
  %51 = sext i32 %50 to i64
  %52 = getelementptr inbounds [100 x i8], [100 x i8]* %7, i64 0, i64 %51
  %53 = load i8, i8* %52, align 1
  %54 = load i32, i32* %2, align 4
  %55 = sext i32 %54 to i64
  %56 = getelementptr inbounds [100 x i8], [100 x i8]* %7, i64 0, i64 %55
  store i8 %53, i8* %56, align 1
  %57 = load i32, i32* %1, align 4
  %58 = trunc i32 %57 to i8
  %59 = load i32, i32* %2, align 4
  %60 = add nsw i32 %59, 1
  %61 = sext i32 %60 to i64
  %62 = getelementptr inbounds [100 x i8], [100 x i8]* %7, i64 0, i64 %61
  store i8 %58, i8* %62, align 1
  br label %63

63:                                               ; preds = %43, %30
  br label %64

64:                                               ; preds = %63
  %65 = load i32, i32* %2, align 4
  %66 = add nsw i32 %65, 1
  store i32 %66, i32* %2, align 4
  br label %25

67:                                               ; preds = %25
  br label %68

68:                                               ; preds = %67
  %69 = load i32, i32* %3, align 4
  %70 = add nsw i32 %69, 1
  store i32 %70, i32* %3, align 4
  br label %21

71:                                               ; preds = %21
  store i32 1, i32* %3, align 4
  br label %72

72:                                               ; preds = %119, %71
  %73 = load i32, i32* %3, align 4
  %74 = icmp sle i32 %73, 50
  br i1 %74, label %75, label %122

75:                                               ; preds = %72
  store i32 0, i32* %2, align 4
  br label %76

76:                                               ; preds = %115, %75
  %77 = load i32, i32* %2, align 4
  %78 = load i32, i32* %4, align 4
  %79 = sub nsw i32 %78, 2
  %80 = icmp sle i32 %77, %79
  br i1 %80, label %81, label %118

81:                                               ; preds = %76
  %82 = load i32, i32* %2, align 4
  %83 = sext i32 %82 to i64
  %84 = getelementptr inbounds [100 x i8], [100 x i8]* %8, i64 0, i64 %83
  %85 = load i8, i8* %84, align 1
  %86 = sext i8 %85 to i32
  %87 = load i32, i32* %2, align 4
  %88 = add nsw i32 %87, 1
  %89 = sext i32 %88 to i64
  %90 = getelementptr inbounds [100 x i8], [100 x i8]* %8, i64 0, i64 %89
  %91 = load i8, i8* %90, align 1
  %92 = sext i8 %91 to i32
  %93 = icmp slt i32 %86, %92
  br i1 %93, label %94, label %114

94:                                               ; preds = %81
  %95 = load i32, i32* %2, align 4
  %96 = sext i32 %95 to i64
  %97 = getelementptr inbounds [100 x i8], [100 x i8]* %8, i64 0, i64 %96
  %98 = load i8, i8* %97, align 1
  %99 = sext i8 %98 to i32
  store i32 %99, i32* %1, align 4
  %100 = load i32, i32* %2, align 4
  %101 = add nsw i32 %100, 1
  %102 = sext i32 %101 to i64
  %103 = getelementptr inbounds [100 x i8], [100 x i8]* %8, i64 0, i64 %102
  %104 = load i8, i8* %103, align 1
  %105 = load i32, i32* %2, align 4
  %106 = sext i32 %105 to i64
  %107 = getelementptr inbounds [100 x i8], [100 x i8]* %8, i64 0, i64 %106
  store i8 %104, i8* %107, align 1
  %108 = load i32, i32* %1, align 4
  %109 = trunc i32 %108 to i8
  %110 = load i32, i32* %2, align 4
  %111 = add nsw i32 %110, 1
  %112 = sext i32 %111 to i64
  %113 = getelementptr inbounds [100 x i8], [100 x i8]* %8, i64 0, i64 %112
  store i8 %109, i8* %113, align 1
  br label %114

114:                                              ; preds = %94, %81
  br label %115

115:                                              ; preds = %114
  %116 = load i32, i32* %2, align 4
  %117 = add nsw i32 %116, 1
  store i32 %117, i32* %2, align 4
  br label %76

118:                                              ; preds = %76
  br label %119

119:                                              ; preds = %118
  %120 = load i32, i32* %3, align 4
  %121 = add nsw i32 %120, 1
  store i32 %121, i32* %3, align 4
  br label %72

122:                                              ; preds = %72
  store i32 0, i32* %2, align 4
  br label %123

123:                                              ; preds = %150, %122
  %124 = load i32, i32* %2, align 4
  %125 = load i32, i32* %4, align 4
  %126 = sub nsw i32 %125, 1
  %127 = icmp sle i32 %124, %126
  br i1 %127, label %128, label %153

128:                                              ; preds = %123
  %129 = load i32, i32* %2, align 4
  %130 = sext i32 %129 to i64
  %131 = getelementptr inbounds [100 x i8], [100 x i8]* %7, i64 0, i64 %130
  %132 = load i8, i8* %131, align 1
  %133 = sext i8 %132 to i32
  %134 = load i32, i32* %2, align 4
  %135 = sext i32 %134 to i64
  %136 = getelementptr inbounds [100 x i8], [100 x i8]* %8, i64 0, i64 %135
  %137 = load i8, i8* %136, align 1
  %138 = sext i8 %137 to i32
  %139 = icmp ne i32 %133, %138
  br i1 %139, label %140, label %142

140:                                              ; preds = %128
  %141 = call i32 (i8*, ...) @printf(i8* getelementptr inbounds ([3 x i8], [3 x i8]* @.str.1, i64 0, i64 0))
  br label %153

142:                                              ; preds = %128
  %143 = load i32, i32* %2, align 4
  %144 = load i32, i32* %4, align 4
  %145 = sub nsw i32 %144, 1
  %146 = icmp eq i32 %143, %145
  br i1 %146, label %147, label %149

147:                                              ; preds = %142
  %148 = call i32 (i8*, ...) @printf(i8* getelementptr inbounds ([4 x i8], [4 x i8]* @.str.2, i64 0, i64 0))
  br label %149

149:                                              ; preds = %147, %142
  br label %150

150:                                              ; preds = %149
  %151 = load i32, i32* %2, align 4
  %152 = add nsw i32 %151, 1
  store i32 %152, i32* %2, align 4
  br label %123

153:                                              ; preds = %140, %123
  br label %156

154:                                              ; preds = %0
  %155 = call i32 (i8*, ...) @printf(i8* getelementptr inbounds ([3 x i8], [3 x i8]* @.str.1, i64 0, i64 0))
  br label %156

156:                                              ; preds = %154, %153
  ret void
}

declare dso_local i32 @__isoc99_scanf(i8*, ...) #1

; Function Attrs: nounwind readonly
declare dso_local i64 @strlen(i8*) #2

declare dso_local i32 @printf(i8*, ...) #1


!llvm.module.flags = !{!0}
!llvm.ident = !{!1}

!0 = !{i32 1, !"wchar_size", i32 4}
!1 = !{!"clang version 10.0.0-4ubuntu1 "}
